target datalayout = "e-m:e-p270:32:32-p271:32:32-p272:64:64-i64:64-i128:128-f80:128-n8:16:32:64-S128"
target triple = "x86_64-pc-linux-gnu"

%struct.list_head = type { ptr, ptr }
%struct.chdir_notify_entry = type { ptr, ptr, ptr, %struct.list_head }

@chdir_notify_entries = internal global %struct.list_head { ptr @chdir_notify_entries, ptr @chdir_notify_entries }, align 8

; Function Attrs: inlinehint nounwind uwtable
define internal void @list_add_tail(ptr noundef %0, ptr noundef %1) #3 {
  %3 = alloca ptr, align 8
  %4 = alloca ptr, align 8
  store ptr %0, ptr %3, align 8, !tbaa !18
  store ptr %1, ptr %4, align 8, !tbaa !18
  %5 = load ptr, ptr %3, align 8, !tbaa !18
  %6 = load ptr, ptr %4, align 8, !tbaa !18
  %7 = getelementptr inbounds nuw %struct.list_head, ptr %6, i32 0, i32 1
  %8 = load ptr, ptr %7, align 8, !tbaa !19
  %9 = getelementptr inbounds nuw %struct.list_head, ptr %8, i32 0, i32 0
  store ptr %5, ptr %9, align 8, !tbaa !20
  %10 = load ptr, ptr %4, align 8, !tbaa !18
  %11 = load ptr, ptr %3, align 8, !tbaa !18
  %12 = getelementptr inbounds nuw %struct.list_head, ptr %11, i32 0, i32 0
  store ptr %10, ptr %12, align 8, !tbaa !20
  %13 = load ptr, ptr %4, align 8, !tbaa !18
  %14 = getelementptr inbounds nuw %struct.list_head, ptr %13, i32 0, i32 1
  %15 = load ptr, ptr %14, align 8, !tbaa !19
  %16 = load ptr, ptr %3, align 8, !tbaa !18
  %17 = getelementptr inbounds nuw %struct.list_head, ptr %16, i32 0, i32 1
  store ptr %15, ptr %17, align 8, !tbaa !19
  %18 = load ptr, ptr %3, align 8, !tbaa !18
  %19 = load ptr, ptr %4, align 8, !tbaa !18
  %20 = getelementptr inbounds nuw %struct.list_head, ptr %19, i32 0, i32 1
  store ptr %18, ptr %20, align 8, !tbaa !19
  ret void
}

; Function Attrs: nounwind uwtable
define dso_local void @chdir_notify_register(ptr noundef %0, ptr noundef %1, ptr noundef %2) #0 {
  %4 = alloca ptr, align 8
  %5 = alloca ptr, align 8
  %6 = alloca ptr, align 8
  %7 = alloca ptr, align 8
  store ptr %0, ptr %4, align 8, !tbaa !4
  store ptr %1, ptr %5, align 8, !tbaa !9
  store ptr %2, ptr %6, align 8, !tbaa !9
  call void @llvm.lifetime.start.p0(i64 8, ptr %7) #7
  %8 = call ptr @xmalloc(i64 noundef 40)
  store ptr %8, ptr %7, align 8, !tbaa !10
  %9 = load ptr, ptr %4, align 8, !tbaa !4
  %10 = load ptr, ptr %7, align 8, !tbaa !10
  %11 = getelementptr inbounds nuw %struct.chdir_notify_entry, ptr %10, i32 0, i32 0
  store ptr %9, ptr %11, align 8, !tbaa !12
  %12 = load ptr, ptr %5, align 8, !tbaa !9
  %13 = load ptr, ptr %7, align 8, !tbaa !10
  %14 = getelementptr inbounds nuw %struct.chdir_notify_entry, ptr %13, i32 0, i32 1
  store ptr %12, ptr %14, align 8, !tbaa !16
  %15 = load ptr, ptr %6, align 8, !tbaa !9
  %16 = load ptr, ptr %7, align 8, !tbaa !10
  %17 = getelementptr inbounds nuw %struct.chdir_notify_entry, ptr %16, i32 0, i32 2
  store ptr %15, ptr %17, align 8, !tbaa !17
  %18 = load ptr, ptr %7, align 8, !tbaa !10
  %19 = getelementptr inbounds nuw %struct.chdir_notify_entry, ptr %18, i32 0, i32 3
  call void @list_add_tail(ptr noundef %19, ptr noundef @chdir_notify_entries)
  call void @llvm.lifetime.end.p0(i64 8, ptr %7) #7
  ret void
}

; Function Attrs: nounwind uwtable
define dso_local void @chdir_notify_reparent(ptr noundef %0, ptr noundef %1) #0 {
  %3 = alloca ptr, align 8
  %4 = alloca ptr, align 8
  store ptr %0, ptr %3, align 8, !tbaa !4
  store ptr %1, ptr %4, align 8, !tbaa !21
  %5 = load ptr, ptr %3, align 8, !tbaa !4
  %6 = load ptr, ptr %4, align 8, !tbaa !21
  call void @chdir_notify_register(ptr noundef %5, ptr noundef @reparent_cb, ptr noundef %6)
  ret void
}