; Function Attrs: nounwind uwtable
define dso_local void @chdir_notify_reparent(ptr noundef %0, ptr noundef %1) local_unnamed_addr #0 {
  %3 = tail call ptr @xmalloc(i64 noundef 40) #7
  store ptr %0, ptr %3, align 8, !tbaa !4
  %4 = getelementptr inbounds nuw i8, ptr %3, i64 8
  store ptr @reparent_cb, ptr %4, align 8, !tbaa !12
  %5 = getelementptr inbounds nuw i8, ptr %3, i64 16
  store ptr %1, ptr %5, align 8, !tbaa !13
  %6 = getelementptr inbounds nuw i8, ptr %3, i64 24
  %7 = load ptr, ptr getelementptr inbounds nuw (i8, ptr @chdir_notify_entries, i64 8), align 8, !tbaa !14
  store ptr %6, ptr %7, align 8, !tbaa !15
  store ptr @chdir_notify_entries, ptr %6, align 8, !tbaa !15
  %8 = getelementptr inbounds nuw i8, ptr %3, i64 32
  store ptr %7, ptr %8, align 8, !tbaa !14
  store ptr %6, ptr getelementptr inbounds nuw (i8, ptr @chdir_notify_entries, i64 8), align 8, !tbaa !14
  ret void
}